target datalayout = "e-m:e-p270:32:32-p271:32:32-p272:64:64-i64:64-i128:128-f80:128-n8:16:32:64-S128"
target triple = "x86_64-pc-linux-gnu"

; Function Attrs: nounwind uwtable
define internal zeroext i1 @pg_eucjp_increment(ptr noundef %0, i32 noundef %1) #1 {
  %3 = alloca i1, align 1
  %4 = alloca ptr, align 8
  %5 = alloca i32, align 4
  %6 = alloca i8, align 1
  %7 = alloca i8, align 1
  %8 = alloca i32, align 4
  %9 = alloca i32, align 4
  store ptr %0, ptr %4, align 8
  store i32 %1, ptr %5, align 4
  call void @llvm.lifetime.start.p0(i64 1, ptr %6) #9
  call void @llvm.lifetime.start.p0(i64 1, ptr %7) #9
  call void @llvm.lifetime.start.p0(i64 4, ptr %8) #9
  %10 = load ptr, ptr %4, align 8
  %11 = load i8, ptr %10, align 1
  store i8 %11, ptr %6, align 1
  %12 = load i8, ptr %6, align 1
  %13 = zext i8 %12 to i32
  switch i32 %13, label %83 [
    i32 142, label %14
    i32 143, label %44
  ]

14:                                               ; preds = %2
  %15 = load i32, ptr %5, align 4
  %16 = icmp ne i32 %15, 2
  br i1 %16, label %17, label %18

17:                                               ; preds = %14
  store i1 false, ptr %3, align 1
  store i32 1, ptr %9, align 4
  br label %138

18:                                               ; preds = %14
  %19 = load ptr, ptr %4, align 8
  %20 = getelementptr inbounds i8, ptr %19, i64 1
  %21 = load i8, ptr %20, align 1
  store i8 %21, ptr %7, align 1
  %22 = load i8, ptr %7, align 1
  %23 = zext i8 %22 to i32
  %24 = icmp sge i32 %23, 223
  br i1 %24, label %25, label %30

25:                                               ; preds = %18
  %26 = load ptr, ptr %4, align 8
  %27 = getelementptr inbounds i8, ptr %26, i64 1
  store i8 -95, ptr %27, align 1
  %28 = load ptr, ptr %4, align 8
  %29 = getelementptr inbounds i8, ptr %28, i64 0
  store i8 -95, ptr %29, align 1
  br label %43

30:                                               ; preds = %18
  %31 = load i8, ptr %7, align 1
  %32 = zext i8 %31 to i32
  %33 = icmp slt i32 %32, 161
  br i1 %33, label %34, label %37

34:                                               ; preds = %30
  %35 = load ptr, ptr %4, align 8
  %36 = getelementptr inbounds i8, ptr %35, i64 1
  store i8 -95, ptr %36, align 1
  br label %42

37:                                               ; preds = %30
  %38 = load ptr, ptr %4, align 8
  %39 = getelementptr inbounds i8, ptr %38, i64 1
  %40 = load i8, ptr %39, align 1
  %41 = add i8 %40, 1
  store i8 %41, ptr %39, align 1
  br label %42

42:                                               ; preds = %37, %34
  br label %43

43:                                               ; preds = %42, %25
  br label %137

44:                                               ; preds = %2
  %45 = load i32, ptr %5, align 4
  %46 = icmp ne i32 %45, 3
  br i1 %46, label %47, label %48

47:                                               ; preds = %44
  store i1 false, ptr %3, align 1
  store i32 1, ptr %9, align 4
  br label %138

48:                                               ; preds = %44
  store i32 2, ptr %8, align 4
  br label %49

49:                                               ; preds = %79, %48
  %50 = load i32, ptr %8, align 4
  %51 = icmp sgt i32 %50, 0
  br i1 %51, label %52, label %82

52:                                               ; preds = %49
  %53 = load ptr, ptr %4, align 8
  %54 = load i32, ptr %8, align 4
  %55 = sext i32 %54 to i64
  %56 = getelementptr inbounds i8, ptr %53, i64 %55
  %57 = load i8, ptr %56, align 1
  store i8 %57, ptr %7, align 1
  %58 = load i8, ptr %7, align 1
  %59 = zext i8 %58 to i32
  %60 = icmp slt i32 %59, 161
  br i1 %60, label %61, label %66

61:                                               ; preds = %52
  %62 = load ptr, ptr %4, align 8
  %63 = load i32, ptr %8, align 4
  %64 = sext i32 %63 to i64
  %65 = getelementptr inbounds i8, ptr %62, i64 %64
  store i8 -95, ptr %65, align 1
  store i1 true, ptr %3, align 1
  store i32 1, ptr %9, align 4
  br label %138

66:                                               ; preds = %52
  %67 = load i8, ptr %7, align 1
  %68 = zext i8 %67 to i32
  %69 = icmp slt i32 %68, 254
  br i1 %69, label %70, label %77

70:                                               ; preds = %66
  %71 = load ptr, ptr %4, align 8
  %72 = load i32, ptr %8, align 4
  %73 = sext i32 %72 to i64
  %74 = getelementptr inbounds i8, ptr %71, i64 %73
  %75 = load i8, ptr %74, align 1
  %76 = add i8 %75, 1
  store i8 %76, ptr %74, align 1
  store i1 true, ptr %3, align 1
  store i32 1, ptr %9, align 4
  br label %138

77:                                               ; preds = %66
  br label %78

78:                                               ; preds = %77
  br label %79

79:                                               ; preds = %78
  %80 = load i32, ptr %8, align 4
  %81 = add i32 %80, -1
  store i32 %81, ptr %8, align 4
  br label %49, !llvm.loop !16

82:                                               ; preds = %49
  store i1 false, ptr %3, align 1
  store i32 1, ptr %9, align 4
  br label %138

83:                                               ; preds = %2
  %84 = load i8, ptr %6, align 1
  %85 = zext i8 %84 to i32
  %86 = and i32 %85, 128
  %87 = icmp ne i32 %86, 0
  br i1 %87, label %88, label %127

88:                                               ; preds = %83
  %89 = load i32, ptr %5, align 4
  %90 = icmp ne i32 %89, 2
  br i1 %90, label %91, label %92

91:                                               ; preds = %88
  store i1 false, ptr %3, align 1
  store i32 1, ptr %9, align 4
  br label %138

92:                                               ; preds = %88
  store i32 1, ptr %8, align 4
  br label %93

93:                                               ; preds = %123, %92
  %94 = load i32, ptr %8, align 4
  %95 = icmp sge i32 %94, 0
  br i1 %95, label %96, label %126

96:                                               ; preds = %93
  %97 = load ptr, ptr %4, align 8
  %98 = load i32, ptr %8, align 4
  %99 = sext i32 %98 to i64
  %100 = getelementptr inbounds i8, ptr %97, i64 %99
  %101 = load i8, ptr %100, align 1
  store i8 %101, ptr %7, align 1
  %102 = load i8, ptr %7, align 1
  %103 = zext i8 %102 to i32
  %104 = icmp slt i32 %103, 161
  br i1 %104, label %105, label %110

105:                                              ; preds = %96
  %106 = load ptr, ptr %4, align 8
  %107 = load i32, ptr %8, align 4
  %108 = sext i32 %107 to i64
  %109 = getelementptr inbounds i8, ptr %106, i64 %108
  store i8 -95, ptr %109, align 1
  store i1 true, ptr %3, align 1
  store i32 1, ptr %9, align 4
  br label %138

110:                                              ; preds = %96
  %111 = load i8, ptr %7, align 1
  %112 = zext i8 %111 to i32
  %113 = icmp slt i32 %112, 254
  br i1 %113, label %114, label %121

114:                                              ; preds = %110
  %115 = load ptr, ptr %4, align 8
  %116 = load i32, ptr %8, align 4
  %117 = sext i32 %116 to i64
  %118 = getelementptr inbounds i8, ptr %115, i64 %117
  %119 = load i8, ptr %118, align 1
  %120 = add i8 %119, 1
  store i8 %120, ptr %118, align 1
  store i1 true, ptr %3, align 1
  store i32 1, ptr %9, align 4
  br label %138

121:                                              ; preds = %110
  br label %122

122:                                              ; preds = %121
  br label %123

123:                                              ; preds = %122
  %124 = load i32, ptr %8, align 4
  %125 = add i32 %124, -1
  store i32 %125, ptr %8, align 4
  br label %93, !llvm.loop !17

126:                                              ; preds = %93
  store i1 false, ptr %3, align 1
  store i32 1, ptr %9, align 4
  br label %138

127:                                              ; preds = %83
  %128 = load i8, ptr %6, align 1
  %129 = zext i8 %128 to i32
  %130 = icmp sgt i32 %129, 126
  br i1 %130, label %131, label %132

131:                                              ; preds = %127
  store i1 false, ptr %3, align 1
  store i32 1, ptr %9, align 4
  br label %138

132:                                              ; preds = %127
  %133 = load ptr, ptr %4, align 8
  %134 = load i8, ptr %133, align 1
  %135 = add i8 %134, 1
  store i8 %135, ptr %133, align 1
  br label %136

136:                                              ; preds = %132
  br label %137

137:                                              ; preds = %136, %43
  store i1 true, ptr %3, align 1
  store i32 1, ptr %9, align 4
  br label %138

138:                                              ; preds = %137, %131, %126, %114, %105, %91, %82, %70, %61, %47, %17
  call void @llvm.lifetime.end.p0(i64 4, ptr %8) #9
  call void @llvm.lifetime.end.p0(i64 1, ptr %7) #9
  call void @llvm.lifetime.end.p0(i64 1, ptr %6) #9
  %139 = load i1, ptr %3, align 1
  ret i1 %139
}