; Function Attrs: nofree norecurse nosync nounwind memory(argmem: readwrite) uwtable
define internal noundef zeroext i1 @pg_eucjp_increment(ptr noundef captures(none) %0, i32 noundef %1) #9 {
  %3 = load i8, ptr %0, align 1
  switch i8 %3, label %30 [
    i8 -114, label %4
    i8 -113, label %15
  ]

4:                                                ; preds = %2
  %.not39 = icmp eq i32 %1, 2
  br i1 %.not39, label %5, label %.loopexit

5:                                                ; preds = %4
  %6 = getelementptr inbounds nuw i8, ptr %0, i64 1
  %7 = load i8, ptr %6, align 1
  %8 = icmp ugt i8 %7, -34
  br i1 %8, label %9, label %10

9:                                                ; preds = %5
  store i8 -95, ptr %6, align 1
  store i8 -95, ptr %0, align 1
  br label %.loopexit

10:                                               ; preds = %5
  %11 = icmp ult i8 %7, -95
  br i1 %11, label %12, label %13

12:                                               ; preds = %10
  store i8 -95, ptr %6, align 1
  br label %.loopexit

13:                                               ; preds = %10
  %14 = add nuw nsw i8 %7, 1
  store i8 %14, ptr %6, align 1
  br label %.loopexit

15:                                               ; preds = %2
  %.not = icmp eq i32 %1, 3
  br i1 %.not, label %.preheader42, label %.loopexit

16:                                               ; preds = %25
  %17 = add nsw i32 %.051, -1
  %18 = icmp ugt i32 %.051, 1
  br i1 %18, label %.preheader42, label %.loopexit, !llvm.loop !13

.preheader42:                                     ; preds = %15, %16
  %.051 = phi i32 [ %17, %16 ], [ 2, %15 ]
  %19 = zext nneg i32 %.051 to i64
  %20 = getelementptr inbounds nuw i8, ptr %0, i64 %19
  %21 = load i8, ptr %20, align 1
  %22 = icmp ult i8 %21, -95
  br i1 %22, label %23, label %25

23:                                               ; preds = %.preheader42
  %24 = getelementptr inbounds nuw i8, ptr %0, i64 %19
  store i8 -95, ptr %24, align 1
  br label %.loopexit

25:                                               ; preds = %.preheader42
  %26 = icmp samesign ult i8 %21, -2
  br i1 %26, label %27, label %16

27:                                               ; preds = %25
  %28 = getelementptr inbounds nuw i8, ptr %0, i64 %19
  %29 = add nuw nsw i8 %21, 1
  store i8 %29, ptr %28, align 1
  br label %.loopexit

30:                                               ; preds = %2
  %.not40 = icmp sgt i8 %3, -1
  br i1 %.not40, label %45, label %31

31:                                               ; preds = %30
  %.not41 = icmp eq i32 %1, 2
  br i1 %.not41, label %.preheader, label %.loopexit

32:                                               ; preds = %40
  %33 = add nsw i32 %.154, -1
  %.not66 = icmp eq i32 %.154, 0
  br i1 %.not66, label %.loopexit, label %.preheader, !llvm.loop !14

.preheader:                                       ; preds = %31, %32
  %.154 = phi i32 [ %33, %32 ], [ 1, %31 ]
  %34 = zext nneg i32 %.154 to i64
  %35 = getelementptr inbounds nuw i8, ptr %0, i64 %34
  %36 = load i8, ptr %35, align 1
  %37 = icmp ult i8 %36, -95
  br i1 %37, label %38, label %40

38:                                               ; preds = %.preheader
  %39 = getelementptr inbounds nuw i8, ptr %0, i64 %34
  store i8 -95, ptr %39, align 1
  br label %.loopexit

40:                                               ; preds = %.preheader
  %41 = icmp samesign ult i8 %36, -2
  br i1 %41, label %42, label %32

42:                                               ; preds = %40
  %43 = getelementptr inbounds nuw i8, ptr %0, i64 %34
  %44 = add nuw nsw i8 %36, 1
  store i8 %44, ptr %43, align 1
  br label %.loopexit

45:                                               ; preds = %30
  %46 = icmp eq i8 %3, 127
  br i1 %46, label %.loopexit, label %47

47:                                               ; preds = %45
  %48 = add nuw nsw i8 %3, 1
  store i8 %48, ptr %0, align 1
  br label %.loopexit

.loopexit:                                        ; preds = %16, %32, %47, %12, %13, %9, %45, %31, %15, %4, %42, %38, %27, %23
  %.035 = phi i1 [ true, %38 ], [ true, %42 ], [ true, %23 ], [ true, %27 ], [ false, %4 ], [ false, %15 ], [ false, %31 ], [ false, %45 ], [ true, %9 ], [ true, %13 ], [ true, %12 ], [ true, %47 ], [ false, %32 ], [ false, %16 ]
  ret i1 %.035
}